; Function Attrs: nounwind uwtable
define ptr @lv_cache_iter_create(ptr noundef %0) local_unnamed_addr #0 {
  %.not = icmp eq ptr %0, null
  br i1 %.not, label %.preheader, label %2

.preheader:                                       ; preds = %1, %.preheader
  br label %.preheader

2:                                                ; preds = %1
  %3 = load ptr, ptr %0, align 8, !tbaa !8
  %4 = getelementptr inbounds nuw i8, ptr %3, i64 80
  %5 = load ptr, ptr %4, align 8, !tbaa !32
  %6 = icmp eq ptr %5, null
  br i1 %6, label %9, label %7

7:                                                ; preds = %2
  %8 = tail call ptr %5(ptr noundef nonnull %0) #5
  br label %9

9:                                                ; preds = %2, %7
  %.0 = phi ptr [ %8, %7 ], [ null, %2 ]
  ret ptr %.0
}